target datalayout = "e-m:e-p270:32:32-p271:32:32-p272:64:64-i64:64-i128:128-f80:128-n8:16:32:64-S128"
target triple = "x86_64-unknown-linux-gnu"

@malloc_init_state = hidden global i32 3, align 4

; Function Attrs: nounwind uwtable
define internal void @jemalloc_constructor() #0 {
entry:
  %retval.i = alloca i1, align 1
  %0 = load i32, ptr @malloc_init_state, align 4
  %cmp.i = icmp eq i32 %0, 0
  %lnot2.i = xor i1 %cmp.i, true
  br i1 %lnot2.i, label %land.lhs.true.i, label %if.end.i

land.lhs.true.i:                                  ; preds = %entry
  %call3.i = call zeroext i1 @malloc_init_hard()
  br i1 %call3.i, label %if.then.i, label %if.end.i

if.then.i:                                        ; preds = %land.lhs.true.i
  store i1 true, ptr %retval.i, align 1
  br label %malloc_init.exit

if.end.i:                                         ; preds = %land.lhs.true.i, %entry
  store i1 false, ptr %retval.i, align 1
  br label %malloc_init.exit

malloc_init.exit:                                 ; preds = %if.end.i, %if.then.i
  ret void
}