; Function Attrs: nounwind uwtable
define internal void @jemalloc_constructor() #1 {
entry:
  %0 = load i32, ptr @malloc_init_state, align 4
  %cmp.i.not = icmp eq i32 %0, 0
  br i1 %cmp.i.not, label %malloc_init.exit, label %land.lhs.true.i

land.lhs.true.i:                                  ; preds = %entry
  %call3.i = tail call fastcc zeroext i1 @malloc_init_hard()
  br label %malloc_init.exit

malloc_init.exit:                                 ; preds = %land.lhs.true.i, %entry
  ret void
}